; Function Attrs: nounwind uwtable
define ptr @Abc_NtkBddToMuxes(ptr noundef %0, i32 noundef %1, i32 noundef %2, i32 noundef %3) local_unnamed_addr #0 {
  %5 = tail call ptr @Abc_NtkStartFrom(ptr noundef %0, i32 noundef 2, i32 noundef 1) #14
  %.not = icmp eq i32 %1, 0
  br i1 %.not, label %8, label %6

6:                                                ; preds = %4
  %7 = tail call i32 @Abc_NtkBddToMuxesPerformGlo(ptr noundef %0, ptr noundef %5, i32 noundef %2, i32 noundef 0, i32 noundef %3)
  %.not14 = icmp eq i32 %7, 0
  br i1 %.not14, label %.sink.split, label %62

8:                                                ; preds = %4
  %9 = tail call ptr @Abc_NtkDfs(ptr noundef %0, i32 noundef 0) #14
  %10 = load ptr, ptr @stdout, align 8
  %11 = getelementptr inbounds nuw i8, ptr %9, i64 4
  %12 = load i32, ptr %11, align 4
  %13 = tail call ptr @Extra_ProgressBarStart(ptr noundef %10, i32 noundef %12) #14
  %.val17.i = load i32, ptr %11, align 4
  %14 = icmp sgt i32 %.val17.i, 0
  br i1 %14, label %.lr.ph.i, label %.critedge.i

.lr.ph.i:                                         ; preds = %8
  %15 = getelementptr i8, ptr %9, i64 8
  %.not.i.i = icmp eq ptr %13, null
  br label %16

16:                                               ; preds = %Abc_NodeBddToMuxes.exit.i, %.lr.ph.i
  %indvars.iv.i = phi i64 [ 0, %.lr.ph.i ], [ %indvars.iv.next.i, %Abc_NodeBddToMuxes.exit.i ]
  %.val14.i = load ptr, ptr %15, align 8
  %17 = getelementptr inbounds nuw ptr, ptr %.val14.i, i64 %indvars.iv.i
  %18 = load ptr, ptr %17, align 8
  br i1 %.not.i.i, label %23, label %19

19:                                               ; preds = %16
  %20 = load i32, ptr %13, align 4
  %21 = sext i32 %20 to i64
  %22 = icmp slt i64 %indvars.iv.i, %21
  br i1 %22, label %Extra_ProgressBarUpdate.exit.i, label %23

23:                                               ; preds = %19, %16
  %24 = trunc nuw nsw i64 %indvars.iv.i to i32
  tail call void @Extra_ProgressBarUpdate_int(ptr noundef %13, i32 noundef %24, ptr noundef null) #14
  br label %Extra_ProgressBarUpdate.exit.i

Extra_ProgressBarUpdate.exit.i:                   ; preds = %23, %19
  %25 = load ptr, ptr %18, align 8
  %26 = getelementptr inbounds nuw i8, ptr %25, i64 256
  %27 = load ptr, ptr %26, align 8
  %28 = getelementptr inbounds nuw i8, ptr %18, i64 56
  %29 = load ptr, ptr %28, align 8
  %30 = tail call ptr @st__init_table(ptr noundef nonnull @st__ptrcmp, ptr noundef nonnull @st__ptrhash) #14
  %31 = getelementptr i8, ptr %18, i64 28
  %.val2122.i.i = load i32, ptr %31, align 4
  %32 = icmp sgt i32 %.val2122.i.i, 0
  br i1 %32, label %.lr.ph.i.i, label %.critedge.i.i

.lr.ph.i.i:                                       ; preds = %Extra_ProgressBarUpdate.exit.i
  %33 = getelementptr i8, ptr %18, i64 32
  br label %34

34:                                               ; preds = %34, %.lr.ph.i.i
  %indvars.iv.i.i = phi i64 [ 0, %.lr.ph.i.i ], [ %indvars.iv.next.i.i, %34 ]
  %.val.i.i = load ptr, ptr %18, align 8
  %.val20.i.i = load ptr, ptr %33, align 8
  %35 = getelementptr i8, ptr %.val.i.i, i64 32
  %.val.val.i.i = load ptr, ptr %35, align 8
  %36 = getelementptr i8, ptr %.val.val.i.i, i64 8
  %.val.val.val.i.i = load ptr, ptr %36, align 8
  %37 = getelementptr inbounds nuw i32, ptr %.val20.i.i, i64 %indvars.iv.i.i
  %38 = load i32, ptr %37, align 4
  %39 = sext i32 %38 to i64
  %40 = getelementptr inbounds ptr, ptr %.val.val.val.i.i, i64 %39
  %41 = load ptr, ptr %40, align 8
  %42 = trunc nuw nsw i64 %indvars.iv.i.i to i32
  %43 = tail call ptr @Cudd_bddIthVar(ptr noundef %27, i32 noundef %42) #14
  %44 = getelementptr inbounds nuw i8, ptr %41, i64 64
  %45 = load ptr, ptr %44, align 8
  %46 = tail call i32 @st__insert(ptr noundef %30, ptr noundef %43, ptr noundef %45) #14
  %indvars.iv.next.i.i = add nuw nsw i64 %indvars.iv.i.i, 1
  %.val21.i.i = load i32, ptr %31, align 4
  %47 = sext i32 %.val21.i.i to i64
  %48 = icmp slt i64 %indvars.iv.next.i.i, %47
  br i1 %48, label %34, label %.critedge.i.i, !llvm.loop !8

.critedge.i.i:                                    ; preds = %34, %Extra_ProgressBarUpdate.exit.i
  %49 = ptrtoint ptr %29 to i64
  %50 = and i64 %49, -2
  %51 = inttoptr i64 %50 to ptr
  %52 = tail call fastcc ptr @Abc_NodeBddToMuxes_rec(ptr noundef %27, ptr noundef %51, ptr noundef %5, ptr noundef %30)
  tail call void @st__free_table(ptr noundef %30) #14
  %53 = and i64 %49, 1
  %.not.i15.i = icmp eq i64 %53, 0
  br i1 %.not.i15.i, label %Abc_NodeBddToMuxes.exit.i, label %54

54:                                               ; preds = %.critedge.i.i
  %55 = tail call ptr @Abc_NtkCreateNodeInv(ptr noundef %5, ptr noundef %52) #14
  br label %Abc_NodeBddToMuxes.exit.i

Abc_NodeBddToMuxes.exit.i:                        ; preds = %54, %.critedge.i.i
  %.019.i.i = phi ptr [ %55, %54 ], [ %52, %.critedge.i.i ]
  %56 = getelementptr inbounds nuw i8, ptr %18, i64 64
  store ptr %.019.i.i, ptr %56, align 8
  %indvars.iv.next.i = add nuw nsw i64 %indvars.iv.i, 1
  %.val.i = load i32, ptr %11, align 4
  %57 = sext i32 %.val.i to i64
  %58 = icmp slt i64 %indvars.iv.next.i, %57
  br i1 %58, label %16, label %.critedge.i, !llvm.loop !9

.critedge.i:                                      ; preds = %Abc_NodeBddToMuxes.exit.i, %8
  %59 = getelementptr inbounds nuw i8, ptr %9, i64 8
  %60 = load ptr, ptr %59, align 8
  %.not.i16.i = icmp eq ptr %60, null
  br i1 %.not.i16.i, label %Abc_NtkBddToMuxesPerform.exit, label %61

61:                                               ; preds = %.critedge.i
  tail call void @free(ptr noundef nonnull %60) #14
  br label %Abc_NtkBddToMuxesPerform.exit

Abc_NtkBddToMuxesPerform.exit:                    ; preds = %.critedge.i, %61
  tail call void @free(ptr noundef nonnull %9) #14
  tail call void @Extra_ProgressBarStop(ptr noundef %13) #14
  tail call void @Abc_NtkFinalize(ptr noundef %0, ptr noundef %5) #14
  br label %62

62:                                               ; preds = %6, %Abc_NtkBddToMuxesPerform.exit
  %63 = tail call i32 @Abc_NtkCheck(ptr noundef %5) #14
  %.not15 = icmp eq i32 %63, 0
  br i1 %.not15, label %64, label %65

64:                                               ; preds = %62
  %puts = tail call i32 @puts(ptr nonnull dereferenceable(1) @str)
  br label %.sink.split

.sink.split:                                      ; preds = %6, %64
  tail call void @Abc_NtkDelete(ptr noundef %5) #14
  br label %65

65:                                               ; preds = %.sink.split, %62
  %.0 = phi ptr [ %5, %62 ], [ null, %.sink.split ]
  ret ptr %.0
}